; Function Attrs: mustprogress uwtable
define void @_ZN11OpenImageIO6v3_1_08DeepData14occlusion_cullEl(ptr noundef nonnull readonly align 8 captures(none) dereferenceable(20) %0, i64 noundef %1) local_unnamed_addr #5 align 2 {
  %3 = load ptr, ptr %0, align 8, !tbaa !35
  %4 = getelementptr inbounds nuw i8, ptr %3, i64 232
  %5 = load i32, ptr %4, align 8, !tbaa !102
  %6 = icmp slt i32 %5, 0
  br i1 %6, label %.loopexit, label %7

7:                                                ; preds = %2
  %8 = icmp sgt i64 %1, -1
  %9 = getelementptr inbounds nuw i8, ptr %0, i64 8
  %10 = load i64, ptr %9, align 8
  %.not.i = icmp slt i64 %1, %10
  %or.cond.i = select i1 %8, i1 %.not.i, i1 false
  br i1 %or.cond.i, label %_ZNK11OpenImageIO6v3_1_08DeepData7samplesEl.exit, label %.loopexit

_ZNK11OpenImageIO6v3_1_08DeepData7samplesEl.exit: ; preds = %7
  %11 = getelementptr inbounds nuw i8, ptr %3, i64 72
  %12 = load ptr, ptr %11, align 8, !tbaa !54
  %13 = getelementptr inbounds nuw i32, ptr %12, i64 %1
  %14 = load i32, ptr %13, align 4, !tbaa !85
  %15 = icmp sgt i32 %14, 0
  br i1 %15, label %.lr.ph, label %.loopexit

.lr.ph:                                           ; preds = %_ZNK11OpenImageIO6v3_1_08DeepData7samplesEl.exit, %20
  %.012 = phi i32 [ %18, %20 ], [ 0, %_ZNK11OpenImageIO6v3_1_08DeepData7samplesEl.exit ]
  %16 = tail call noundef float @_ZNK11OpenImageIO6v3_1_08DeepData10deep_valueElii(ptr noundef nonnull align 8 dereferenceable(20) %0, i64 noundef %1, i32 noundef %5, i32 noundef %.012)
  %17 = fcmp ult float %16, 1.000000e+00
  %18 = add nuw nsw i32 %.012, 1
  br i1 %17, label %20, label %19

19:                                               ; preds = %.lr.ph
  tail call void @_ZN11OpenImageIO6v3_1_08DeepData11set_samplesEli(ptr noundef nonnull align 8 dereferenceable(20) %0, i64 noundef %1, i32 noundef %18)
  br label %.loopexit

20:                                               ; preds = %.lr.ph
  %exitcond.not = icmp eq i32 %18, %14
  br i1 %exitcond.not, label %.loopexit, label %.lr.ph, !llvm.loop !168

.loopexit:                                        ; preds = %20, %7, %_ZNK11OpenImageIO6v3_1_08DeepData7samplesEl.exit, %19, %2
  ret void
}